target datalayout = "e-m:e-p270:32:32-p271:32:32-p272:64:64-i64:64-i128:128-f80:128-n8:16:32:64-S128"
target triple = "x86_64-pc-linux-gnu"

%struct.ExprState = type { i32, i8, i8, i64, ptr, ptr, ptr, ptr, ptr, i32, i32, ptr, ptr, ptr, ptr, ptr, ptr, ptr }
%struct.ExprEvalStep = type { i64, ptr, ptr, %union.anon }
%union.anon = type { %struct.anon.23 }
%struct.anon.23 = type { ptr, ptr, i32, i32, ptr, ptr }
%struct.anon.30 = type { ptr, ptr, ptr, i32, ptr }
%struct.anon.0 = type { i32, i32, i32 }
%struct.ExprContext = type { i32, ptr, ptr, ptr, ptr, ptr, ptr, ptr, ptr, ptr, i64, i8, i64, i8, ptr, ptr, ptr, ptr }
%struct.anon = type { i32, i8, ptr, ptr }
%struct.TupleTableSlot = type { i32, i16, i16, ptr, ptr, ptr, ptr, ptr, %struct.ItemPointerData, i32 }
%struct.ItemPointerData = type { %struct.BlockIdData, i16 }
%struct.BlockIdData = type { i16, i16 }
%struct.FunctionCallInfoBaseData = type { ptr, ptr, ptr, i32, i8, i16, [0 x %struct.NullableDatum] }
%struct.NullableDatum = type { i64, i8 }

; Function Attrs: inlinehint nounwind uwtable
define internal i32 @DatumGetUInt32(i64 noundef %0) #2 {
  %2 = alloca i64, align 8
  store i64 %0, ptr %2, align 8
  %3 = load i64, ptr %2, align 8
  %4 = trunc i64 %3 to i32
  ret i32 %4
}

; Function Attrs: inlinehint nounwind uwtable
define internal void @slot_getsomeattrs(ptr noundef %0, i32 noundef %1) #2 {
  %3 = alloca ptr, align 8
  %4 = alloca i32, align 4
  store ptr %0, ptr %3, align 8
  store i32 %1, ptr %4, align 4
  %5 = load ptr, ptr %3, align 8
  %6 = getelementptr inbounds nuw %struct.TupleTableSlot, ptr %5, i32 0, i32 2
  %7 = load i16, ptr %6, align 2
  %8 = sext i16 %7 to i32
  %9 = load i32, ptr %4, align 4
  %10 = icmp slt i32 %8, %9
  br i1 %10, label %11, label %14

11:                                               ; preds = %2
  %12 = load ptr, ptr %3, align 8
  %13 = load i32, ptr %4, align 4
  call void @slot_getsomeattrs_int(ptr noundef %12, i32 noundef %13)
  br label %14

14:                                               ; preds = %11, %2
  ret void
}

; Function Attrs: nounwind uwtable
define internal void @CheckOpSlotCompatibility(ptr noundef %0, ptr noundef %1) #0 {
  %3 = alloca ptr, align 8
  %4 = alloca ptr, align 8
  store ptr %0, ptr %3, align 8
  store ptr %1, ptr %4, align 8
  ret void
}

; Function Attrs: nounwind uwtable
define internal i64 @ExecJustHashOuterVarStrict(ptr noundef %0, ptr noundef %1, ptr noundef %2) #0 {
  %4 = alloca i64, align 8
  %5 = alloca ptr, align 8
  %6 = alloca ptr, align 8
  %7 = alloca ptr, align 8
  %8 = alloca ptr, align 8
  %9 = alloca ptr, align 8
  %10 = alloca ptr, align 8
  %11 = alloca ptr, align 8
  %12 = alloca i32, align 4
  %13 = alloca i32, align 4
  store ptr %0, ptr %5, align 8
  store ptr %1, ptr %6, align 8
  store ptr %2, ptr %7, align 8
  call void @llvm.lifetime.start.p0(i64 8, ptr %8) #11
  %14 = load ptr, ptr %5, align 8
  %15 = getelementptr inbounds nuw %struct.ExprState, ptr %14, i32 0, i32 5
  %16 = load ptr, ptr %15, align 8
  %17 = getelementptr inbounds %struct.ExprEvalStep, ptr %16, i64 0
  store ptr %17, ptr %8, align 8
  call void @llvm.lifetime.start.p0(i64 8, ptr %9) #11
  %18 = load ptr, ptr %5, align 8
  %19 = getelementptr inbounds nuw %struct.ExprState, ptr %18, i32 0, i32 5
  %20 = load ptr, ptr %19, align 8
  %21 = getelementptr inbounds %struct.ExprEvalStep, ptr %20, i64 1
  store ptr %21, ptr %9, align 8
  call void @llvm.lifetime.start.p0(i64 8, ptr %10) #11
  %22 = load ptr, ptr %5, align 8
  %23 = getelementptr inbounds nuw %struct.ExprState, ptr %22, i32 0, i32 5
  %24 = load ptr, ptr %23, align 8
  %25 = getelementptr inbounds %struct.ExprEvalStep, ptr %24, i64 2
  store ptr %25, ptr %10, align 8
  call void @llvm.lifetime.start.p0(i64 8, ptr %11) #11
  %26 = load ptr, ptr %10, align 8
  %27 = getelementptr inbounds nuw %struct.ExprEvalStep, ptr %26, i32 0, i32 3
  %28 = getelementptr inbounds nuw %struct.anon.30, ptr %27, i32 0, i32 1
  %29 = load ptr, ptr %28, align 8
  store ptr %29, ptr %11, align 8
  call void @llvm.lifetime.start.p0(i64 4, ptr %12) #11
  %30 = load ptr, ptr %9, align 8
  %31 = getelementptr inbounds nuw %struct.ExprEvalStep, ptr %30, i32 0, i32 3
  %32 = getelementptr inbounds nuw %struct.anon.0, ptr %31, i32 0, i32 0
  %33 = load i32, ptr %32, align 8
  store i32 %33, ptr %12, align 4
  %34 = load ptr, ptr %8, align 8
  %35 = load ptr, ptr %6, align 8
  %36 = getelementptr inbounds nuw %struct.ExprContext, ptr %35, i32 0, i32 3
  %37 = load ptr, ptr %36, align 8
  call void @CheckOpSlotCompatibility(ptr noundef %34, ptr noundef %37)
  %38 = load ptr, ptr %6, align 8
  %39 = getelementptr inbounds nuw %struct.ExprContext, ptr %38, i32 0, i32 3
  %40 = load ptr, ptr %39, align 8
  %41 = load ptr, ptr %8, align 8
  %42 = getelementptr inbounds nuw %struct.ExprEvalStep, ptr %41, i32 0, i32 3
  %43 = getelementptr inbounds nuw %struct.anon, ptr %42, i32 0, i32 0
  %44 = load i32, ptr %43, align 8
  call void @slot_getsomeattrs(ptr noundef %40, i32 noundef %44)
  %45 = load ptr, ptr %6, align 8
  %46 = getelementptr inbounds nuw %struct.ExprContext, ptr %45, i32 0, i32 3
  %47 = load ptr, ptr %46, align 8
  %48 = getelementptr inbounds nuw %struct.TupleTableSlot, ptr %47, i32 0, i32 5
  %49 = load ptr, ptr %48, align 8
  %50 = load i32, ptr %12, align 4
  %51 = sext i32 %50 to i64
  %52 = getelementptr inbounds i64, ptr %49, i64 %51
  %53 = load i64, ptr %52, align 8
  %54 = load ptr, ptr %11, align 8
  %55 = getelementptr inbounds nuw %struct.FunctionCallInfoBaseData, ptr %54, i32 0, i32 6
  %56 = getelementptr inbounds [0 x %struct.NullableDatum], ptr %55, i64 0, i64 0
  %57 = getelementptr inbounds nuw %struct.NullableDatum, ptr %56, i32 0, i32 0
  store i64 %53, ptr %57, align 8
  %58 = load ptr, ptr %6, align 8
  %59 = getelementptr inbounds nuw %struct.ExprContext, ptr %58, i32 0, i32 3
  %60 = load ptr, ptr %59, align 8
  %61 = getelementptr inbounds nuw %struct.TupleTableSlot, ptr %60, i32 0, i32 6
  %62 = load ptr, ptr %61, align 8
  %63 = load i32, ptr %12, align 4
  %64 = sext i32 %63 to i64
  %65 = getelementptr inbounds i8, ptr %62, i64 %64
  %66 = load i8, ptr %65, align 1, !range !7, !noundef !8
  %67 = trunc i8 %66 to i1
  %68 = load ptr, ptr %11, align 8
  %69 = getelementptr inbounds nuw %struct.FunctionCallInfoBaseData, ptr %68, i32 0, i32 6
  %70 = getelementptr inbounds [0 x %struct.NullableDatum], ptr %69, i64 0, i64 0
  %71 = getelementptr inbounds nuw %struct.NullableDatum, ptr %70, i32 0, i32 1
  %72 = zext i1 %67 to i8
  store i8 %72, ptr %71, align 8
  %73 = load ptr, ptr %11, align 8
  %74 = getelementptr inbounds nuw %struct.FunctionCallInfoBaseData, ptr %73, i32 0, i32 6
  %75 = getelementptr inbounds [0 x %struct.NullableDatum], ptr %74, i64 0, i64 0
  %76 = getelementptr inbounds nuw %struct.NullableDatum, ptr %75, i32 0, i32 1
  %77 = load i8, ptr %76, align 8, !range !7, !noundef !8
  %78 = trunc i8 %77 to i1
  br i1 %78, label %89, label %79

79:                                               ; preds = %3
  %80 = load ptr, ptr %7, align 8
  store i8 0, ptr %80, align 1
  %81 = load ptr, ptr %10, align 8
  %82 = getelementptr inbounds nuw %struct.ExprEvalStep, ptr %81, i32 0, i32 3
  %83 = getelementptr inbounds nuw %struct.anon.30, ptr %82, i32 0, i32 2
  %84 = load ptr, ptr %83, align 8
  %85 = load ptr, ptr %11, align 8
  %86 = call i64 %84(ptr noundef %85)
  %87 = call i32 @DatumGetUInt32(i64 noundef %86)
  %88 = zext i32 %87 to i64
  store i64 %88, ptr %4, align 8
  store i32 1, ptr %13, align 4
  br label %91

89:                                               ; preds = %3
  %90 = load ptr, ptr %7, align 8
  store i8 1, ptr %90, align 1
  store i64 0, ptr %4, align 8
  store i32 1, ptr %13, align 4
  br label %91

91:                                               ; preds = %89, %79
  call void @llvm.lifetime.end.p0(i64 4, ptr %12) #11
  call void @llvm.lifetime.end.p0(i64 8, ptr %11) #11
  call void @llvm.lifetime.end.p0(i64 8, ptr %10) #11
  call void @llvm.lifetime.end.p0(i64 8, ptr %9) #11
  call void @llvm.lifetime.end.p0(i64 8, ptr %8) #11
  %92 = load i64, ptr %4, align 8
  ret i64 %92
}